target datalayout = "e-m:e-p270:32:32-p271:32:32-p272:64:64-i64:64-i128:128-f80:128-n8:16:32:64-S128"
target triple = "x86_64-pc-linux-gnu"

%class.State = type { [315 x i32], [315 x i16], i32, ptr, [2 x ptr] }

; Function Attrs: mustprogress nounwind uwtable
define hidden void @_ZN5State17_sub_Op_ConNKlassEPK4Node(ptr noundef nonnull align 8 dereferenceable(1920) %0, ptr noundef %1) #1 align 2 {
  %3 = alloca ptr, align 8
  %4 = alloca ptr, align 8
  %5 = alloca i32, align 4
  store ptr %0, ptr %3, align 8
  store ptr %1, ptr %4, align 8
  %6 = load ptr, ptr %3, align 8
  store i32 10, ptr %5, align 4
  %7 = load i32, ptr %5, align 4
  %8 = getelementptr inbounds %class.State, ptr %6, i32 0, i32 0
  %9 = getelementptr inbounds [315 x i32], ptr %8, i64 0, i64 24
  store i32 %7, ptr %9, align 8
  %10 = getelementptr inbounds %class.State, ptr %6, i32 0, i32 1
  %11 = getelementptr inbounds [315 x i16], ptr %10, i64 0, i64 24
  store i16 49, ptr %11, align 4
  %12 = load i32, ptr %5, align 4
  %13 = add i32 %12, 125
  %14 = getelementptr inbounds %class.State, ptr %6, i32 0, i32 0
  %15 = getelementptr inbounds [315 x i32], ptr %14, i64 0, i64 59
  store i32 %13, ptr %15, align 4
  %16 = getelementptr inbounds %class.State, ptr %6, i32 0, i32 1
  %17 = getelementptr inbounds [315 x i16], ptr %16, i64 0, i64 59
  store i16 713, ptr %17, align 2
  %18 = load i32, ptr %5, align 4
  %19 = add i32 %18, 125
  %20 = getelementptr inbounds %class.State, ptr %6, i32 0, i32 0
  %21 = getelementptr inbounds [315 x i32], ptr %20, i64 0, i64 62
  store i32 %19, ptr %21, align 8
  %22 = getelementptr inbounds %class.State, ptr %6, i32 0, i32 1
  %23 = getelementptr inbounds [315 x i16], ptr %22, i64 0, i64 62
  store i16 713, ptr %23, align 4
  %24 = getelementptr inbounds %class.State, ptr %6, i32 0, i32 0
  %25 = getelementptr inbounds [315 x i32], ptr %24, i64 0, i64 59
  store i32 125, ptr %25, align 4
  %26 = getelementptr inbounds %class.State, ptr %6, i32 0, i32 1
  %27 = getelementptr inbounds [315 x i16], ptr %26, i64 0, i64 59
  store i16 713, ptr %27, align 2
  %28 = getelementptr inbounds %class.State, ptr %6, i32 0, i32 0
  %29 = getelementptr inbounds [315 x i32], ptr %28, i64 0, i64 62
  store i32 125, ptr %29, align 8
  %30 = getelementptr inbounds %class.State, ptr %6, i32 0, i32 1
  %31 = getelementptr inbounds [315 x i16], ptr %30, i64 0, i64 62
  store i16 713, ptr %31, align 4
  ret void
}