; Function Attrs: mustprogress nofree norecurse nosync nounwind willreturn memory(argmem: write) uwtable
define hidden void @_ZN5State17_sub_Op_ConNKlassEPK4Node(ptr nocapture noundef nonnull writeonly align 8 dereferenceable(1920) %0, ptr nocapture noundef readnone %1) local_unnamed_addr #0 align 2 {
  %3 = getelementptr inbounds i8, ptr %0, i64 96
  store i32 10, ptr %3, align 8
  %4 = getelementptr inbounds i8, ptr %0, i64 1308
  store i16 49, ptr %4, align 4
  %5 = getelementptr inbounds i8, ptr %0, i64 236
  %6 = getelementptr inbounds i8, ptr %0, i64 1378
  %7 = getelementptr inbounds i8, ptr %0, i64 248
  %8 = getelementptr inbounds i8, ptr %0, i64 1384
  store i32 125, ptr %5, align 4
  store i16 713, ptr %6, align 2
  store i32 125, ptr %7, align 8
  store i16 713, ptr %8, align 8
  ret void
}